target datalayout = "e-m:e-p270:32:32-p271:32:32-p272:64:64-i64:64-i128:128-f80:128-n8:16:32:64-S128"
target triple = "x86_64-pc-linux-gnu"

%struct.cert_store_t = type { %union.pthread_mutex_t, i8, %struct.cert_list_t, %struct.cert_list_t }
%union.pthread_mutex_t = type { %struct.__pthread_mutex_s }
%struct.__pthread_mutex_s = type { i32, i32, i32, i32, i32, i16, i16, %struct.__pthread_internal_list }
%struct.__pthread_internal_list = type { ptr, ptr }
%struct.cert_list_t = type { ptr, i64 }

@_cert_store = internal global %struct.cert_store_t zeroinitializer, align 8
@.str = private unnamed_addr constant [19 x i8] c"Mutex lock failed\0A\00", align 1
@.str.1 = private unnamed_addr constant [21 x i8] c"Mutex unlock failed\0A\00", align 1

; Function Attrs: nounwind uwtable
define void @cert_store_unload() #0 {
  %1 = alloca i32, align 4
  %2 = call i32 @pthread_mutex_lock(ptr noundef @_cert_store) #10
  store i32 %2, ptr %1, align 4
  %3 = load i32, ptr %1, align 4
  %4 = icmp ne i32 %3, 0
  br i1 %4, label %5, label %8

5:                                                ; preds = %0
  %6 = load i32, ptr %1, align 4
  %7 = call ptr @__errno_location() #11
  store i32 %6, ptr %7, align 4
  call void (i32, ptr, ...) @mprintf(i32 noundef 5, ptr noundef @.str)
  br label %8

8:                                                ; preds = %5, %0
  call void @cert_store_unload_int()
  %9 = call i32 @pthread_mutex_unlock(ptr noundef @_cert_store) #10
  store i32 %9, ptr %1, align 4
  %10 = load i32, ptr %1, align 4
  %11 = icmp ne i32 %10, 0
  br i1 %11, label %12, label %15

12:                                               ; preds = %8
  %13 = load i32, ptr %1, align 4
  %14 = call ptr @__errno_location() #11
  store i32 %13, ptr %14, align 4
  call void (i32, ptr, ...) @mprintf(i32 noundef 5, ptr noundef @.str.1)
  br label %15

15:                                               ; preds = %12, %8
  ret void
}