; Function Attrs: nounwind uwtable
define void @cert_store_unload() local_unnamed_addr #1 {
  %1 = tail call i32 @pthread_mutex_lock(ptr noundef nonnull @_cert_store) #15
  %.not = icmp eq i32 %1, 0
  br i1 %.not, label %4, label %2

2:                                                ; preds = %0
  %3 = tail call ptr @__errno_location() #16
  store i32 %1, ptr %3, align 4
  tail call void (i32, ptr, ...) @mprintf(i32 noundef 5, ptr noundef nonnull @.str) #15
  br label %4

4:                                                ; preds = %2, %0
  tail call void @cert_store_unload_int()
  %5 = tail call i32 @pthread_mutex_unlock(ptr noundef nonnull @_cert_store) #15
  %.not5 = icmp eq i32 %5, 0
  br i1 %.not5, label %8, label %6

6:                                                ; preds = %4
  %7 = tail call ptr @__errno_location() #16
  store i32 %5, ptr %7, align 4
  tail call void (i32, ptr, ...) @mprintf(i32 noundef 5, ptr noundef nonnull @.str.1) #15
  br label %8

8:                                                ; preds = %6, %4
  ret void
}